target datalayout = "e-m:e-p270:32:32-p271:32:32-p272:64:64-i64:64-i128:128-f80:128-n8:16:32:64-S128"
target triple = "x86_64-pc-linux-gnu"

%class.AbsSeq = type { ptr, i32, double, double, double, double, double }
%class.G1IHOPControl = type { ptr, double, i64, double, ptr }
%class.G1AdaptiveIHOPControl = type { %class.G1IHOPControl, i64, i64, ptr, %class.TruncatedSeq, %class.TruncatedSeq, i64 }
%class.TruncatedSeq = type { %class.AbsSeq, ptr, i32, i32 }
%class.G1Predictions = type { double }

@g_assert_poison = external global ptr, align 8
@.str.5 = private unnamed_addr constant [42 x i8] c"src/hotspot/share/gc/g1/g1IHOPControl.cpp\00", align 1
@.str.6 = private unnamed_addr constant [40 x i8] c"guarantee(_target_occupancy > 0) failed\00", align 1
@.str.7 = private unnamed_addr constant [40 x i8] c"Target occupancy still not updated yet.\00", align 1
@G1AdaptiveIHOPNumInitialSamples = external global i64, align 8
@_ZN8Universe14_collectedHeapE = external global ptr, align 8

; Function Attrs: mustprogress nounwind uwtable
define linkonce_odr hidden noundef ptr @_ZN8Universe4heapEv() #1 comdat align 2 {
  %1 = load ptr, ptr @_ZN8Universe14_collectedHeapE, align 8
  ret ptr %1
}

; Function Attrs: mustprogress nounwind uwtable
define linkonce_odr hidden noundef double @_ZNK13G1Predictions15stddev_estimateEPK12TruncatedSeq(ptr noundef nonnull align 8 dereferenceable(8) %0, ptr noundef %1) #1 comdat align 2 {
  %3 = alloca ptr, align 8
  %4 = alloca ptr, align 8
  %5 = alloca double, align 8
  %6 = alloca i32, align 4
  store ptr %0, ptr %3, align 8
  store ptr %1, ptr %4, align 8
  %7 = load ptr, ptr %4, align 8
  %8 = call noundef double @_ZNK6AbsSeq3dsdEv(ptr noundef nonnull align 8 dereferenceable(56) %7)
  store double %8, ptr %5, align 8
  %9 = load ptr, ptr %4, align 8
  %10 = call noundef i32 @_ZNK6AbsSeq3numEv(ptr noundef nonnull align 8 dereferenceable(56) %9)
  store i32 %10, ptr %6, align 4
  %11 = load i32, ptr %6, align 4
  %12 = icmp slt i32 %11, 5
  br i1 %12, label %13, label %23

13:                                               ; preds = %2
  %14 = load ptr, ptr %4, align 8
  %15 = call noundef double @_ZNK6AbsSeq4davgEv(ptr noundef nonnull align 8 dereferenceable(56) %14)
  %16 = load i32, ptr %6, align 4
  %17 = sub nsw i32 5, %16
  %18 = sitofp i32 %17 to double
  %19 = fmul double %15, %18
  %20 = fdiv double %19, 2.000000e+00
  %21 = load double, ptr %5, align 8
  %22 = call noundef double @_Z4MAX2IdET_S0_S0_(double noundef %20, double noundef %21)
  store double %22, ptr %5, align 8
  br label %23

23:                                               ; preds = %13, %2
  %24 = load double, ptr %5, align 8
  ret double %24
}

; Function Attrs: mustprogress nounwind uwtable
define linkonce_odr hidden noundef ptr @_ZN13CollectedHeap10named_heapI15G1CollectedHeapEEPT_NS_4NameE(i32 noundef %0) #1 comdat align 2 {
  %2 = alloca i32, align 4
  %3 = alloca ptr, align 8
  store i32 %0, ptr %2, align 4
  %4 = call noundef ptr @_ZN8Universe4heapEv()
  store ptr %4, ptr %3, align 8
  %5 = load ptr, ptr %3, align 8
  ret ptr %5
}

; Function Attrs: mustprogress nounwind uwtable
define linkonce_odr hidden noundef double @_Z4MAX2IdET_S0_S0_(double noundef %0, double noundef %1) #1 comdat {
  %3 = alloca double, align 8
  %4 = alloca double, align 8
  store double %0, ptr %3, align 8
  store double %1, ptr %4, align 8
  %5 = load double, ptr %3, align 8
  %6 = load double, ptr %4, align 8
  %7 = fcmp ogt double %5, %6
  br i1 %7, label %8, label %10

8:                                                ; preds = %2
  %9 = load double, ptr %3, align 8
  br label %12

10:                                               ; preds = %2
  %11 = load double, ptr %4, align 8
  br label %12

12:                                               ; preds = %10, %8
  %13 = phi double [ %9, %8 ], [ %11, %10 ]
  ret double %13
}

; Function Attrs: mustprogress nounwind uwtable
define linkonce_odr hidden noundef double @_ZNK13G1Predictions7predictEPK12TruncatedSeq(ptr noundef nonnull align 8 dereferenceable(8) %0, ptr noundef %1) #1 comdat align 2 {
  %3 = alloca ptr, align 8
  %4 = alloca ptr, align 8
  store ptr %0, ptr %3, align 8
  store ptr %1, ptr %4, align 8
  %5 = load ptr, ptr %3, align 8
  %6 = load ptr, ptr %4, align 8
  %7 = call noundef double @_ZNK6AbsSeq4davgEv(ptr noundef nonnull align 8 dereferenceable(56) %6)
  %8 = getelementptr inbounds %class.G1Predictions, ptr %5, i32 0, i32 0
  %9 = load double, ptr %8, align 8
  %10 = load ptr, ptr %4, align 8
  %11 = call noundef double @_ZNK13G1Predictions15stddev_estimateEPK12TruncatedSeq(ptr noundef nonnull align 8 dereferenceable(8) %5, ptr noundef %10)
  %12 = call double @llvm.fmuladd.f64(double %9, double %11, double %7)
  ret double %12
}

; Function Attrs: mustprogress nounwind uwtable
define linkonce_odr hidden noundef ptr @_ZN15G1CollectedHeap4heapEv() #1 comdat align 2 {
  %1 = call noundef ptr @_ZN13CollectedHeap10named_heapI15G1CollectedHeapEEPT_NS_4NameE(i32 noundef 3)
  ret ptr %1
}

; Function Attrs: mustprogress nounwind uwtable
define linkonce_odr hidden noundef double @_Z4MIN2IdET_S0_S0_(double noundef %0, double noundef %1) #1 comdat {
  %3 = alloca double, align 8
  %4 = alloca double, align 8
  store double %0, ptr %3, align 8
  store double %1, ptr %4, align 8
  %5 = load double, ptr %3, align 8
  %6 = load double, ptr %4, align 8
  %7 = fcmp olt double %5, %6
  br i1 %7, label %8, label %10

8:                                                ; preds = %2
  %9 = load double, ptr %3, align 8
  br label %12

10:                                               ; preds = %2
  %11 = load double, ptr %4, align 8
  br label %12

12:                                               ; preds = %10, %8
  %13 = phi double [ %9, %8 ], [ %11, %10 ]
  ret double %13
}

; Function Attrs: mustprogress nounwind uwtable
define linkonce_odr hidden noundef double @_ZNK13G1Predictions20predict_zero_boundedEPK12TruncatedSeq(ptr noundef nonnull align 8 dereferenceable(8) %0, ptr noundef %1) #1 comdat align 2 {
  %3 = alloca ptr, align 8
  %4 = alloca ptr, align 8
  store ptr %0, ptr %3, align 8
  store ptr %1, ptr %4, align 8
  %5 = load ptr, ptr %3, align 8
  %6 = load ptr, ptr %4, align 8
  %7 = call noundef double @_ZNK13G1Predictions7predictEPK12TruncatedSeq(ptr noundef nonnull align 8 dereferenceable(8) %5, ptr noundef %6)
  %8 = call noundef double @_Z4MAX2IdET_S0_S0_(double noundef %7, double noundef 0.000000e+00)
  ret double %8
}

; Function Attrs: mustprogress nounwind uwtable
define linkonce_odr hidden noundef i32 @_ZNK6AbsSeq3numEv(ptr noundef nonnull align 8 dereferenceable(56) %0) #1 comdat align 2 {
  %2 = alloca ptr, align 8
  store ptr %0, ptr %2, align 8
  %3 = load ptr, ptr %2, align 8
  %4 = getelementptr inbounds %class.AbsSeq, ptr %3, i32 0, i32 1
  %5 = load i32, ptr %4, align 8
  ret i32 %5
}

; Function Attrs: mustprogress nounwind uwtable
define hidden noundef i64 @_ZNK21G1AdaptiveIHOPControl23actual_target_thresholdEv(ptr noundef nonnull align 8 dereferenceable(216) %0) #1 align 2 {
  %2 = alloca ptr, align 8
  %3 = alloca double, align 8
  store ptr %0, ptr %2, align 8
  %4 = load ptr, ptr %2, align 8
  br label %5

5:                                                ; preds = %1
  %6 = getelementptr inbounds %class.G1IHOPControl, ptr %4, i32 0, i32 2
  %7 = load i64, ptr %6, align 8
  %8 = icmp ugt i64 %7, 0
  br i1 %8, label %11, label %9

9:                                                ; preds = %5
  %10 = load ptr, ptr @g_assert_poison, align 8
  store i8 88, ptr %10, align 1
  call void (ptr, i32, ptr, ptr, ...) @_Z15report_vm_errorPKciS0_S0_z(ptr noundef @.str.5, i32 noundef 101, ptr noundef @.str.6, ptr noundef @.str.7) #10
  unreachable

11:                                               ; preds = %5
  br label %12

12:                                               ; preds = %11
  %13 = getelementptr inbounds %class.G1AdaptiveIHOPControl, ptr %4, i32 0, i32 1
  %14 = load i64, ptr %13, align 8
  %15 = getelementptr inbounds %class.G1AdaptiveIHOPControl, ptr %4, i32 0, i32 2
  %16 = load i64, ptr %15, align 8
  %17 = add i64 %14, %16
  %18 = uitofp i64 %17 to double
  %19 = call noundef double @_Z4MIN2IdET_S0_S0_(double noundef %18, double noundef 1.000000e+02)
  store double %19, ptr %3, align 8
  %20 = call noundef ptr @_ZN15G1CollectedHeap4heapEv()
  %21 = load ptr, ptr %20, align 8
  %22 = getelementptr inbounds ptr, ptr %21, i64 15
  %23 = load ptr, ptr %22, align 8
  %24 = call noundef i64 %23(ptr noundef nonnull align 8 dereferenceable(1488) %20)
  %25 = uitofp i64 %24 to double
  %26 = load double, ptr %3, align 8
  %27 = fsub double 1.000000e+02, %26
  %28 = fmul double %25, %27
  %29 = fdiv double %28, 1.000000e+02
  %30 = getelementptr inbounds %class.G1IHOPControl, ptr %4, i32 0, i32 2
  %31 = load i64, ptr %30, align 8
  %32 = uitofp i64 %31 to double
  %33 = getelementptr inbounds %class.G1AdaptiveIHOPControl, ptr %4, i32 0, i32 2
  %34 = load i64, ptr %33, align 8
  %35 = uitofp i64 %34 to double
  %36 = fsub double 1.000000e+02, %35
  %37 = fmul double %32, %36
  %38 = fdiv double %37, 1.000000e+02
  %39 = call noundef double @_Z4MIN2IdET_S0_S0_(double noundef %29, double noundef %38)
  %40 = fptoui double %39 to i64
  ret i64 %40
}

; Function Attrs: mustprogress nounwind uwtable
define hidden noundef double @_ZNK21G1AdaptiveIHOPControl7predictEPK12TruncatedSeq(ptr noundef nonnull align 8 dereferenceable(216) %0, ptr noundef %1) #1 align 2 {
  %3 = alloca ptr, align 8
  %4 = alloca ptr, align 8
  store ptr %0, ptr %3, align 8
  store ptr %1, ptr %4, align 8
  %5 = load ptr, ptr %3, align 8
  %6 = getelementptr inbounds %class.G1AdaptiveIHOPControl, ptr %5, i32 0, i32 3
  %7 = load ptr, ptr %6, align 8
  %8 = load ptr, ptr %4, align 8
  %9 = call noundef double @_ZNK13G1Predictions20predict_zero_boundedEPK12TruncatedSeq(ptr noundef nonnull align 8 dereferenceable(8) %7, ptr noundef %8)
  ret double %9
}

; Function Attrs: mustprogress nounwind uwtable
define hidden noundef zeroext i1 @_ZNK21G1AdaptiveIHOPControl31have_enough_data_for_predictionEv(ptr noundef nonnull align 8 dereferenceable(216) %0) #1 align 2 {
  %2 = alloca ptr, align 8
  store ptr %0, ptr %2, align 8
  %3 = load ptr, ptr %2, align 8
  %4 = getelementptr inbounds %class.G1AdaptiveIHOPControl, ptr %3, i32 0, i32 4
  %5 = call noundef i32 @_ZNK6AbsSeq3numEv(ptr noundef nonnull align 8 dereferenceable(56) %4)
  %6 = sext i32 %5 to i64
  %7 = load i64, ptr @G1AdaptiveIHOPNumInitialSamples, align 8
  %8 = icmp uge i64 %6, %7
  br i1 %8, label %9, label %15

9:                                                ; preds = %1
  %10 = getelementptr inbounds %class.G1AdaptiveIHOPControl, ptr %3, i32 0, i32 5
  %11 = call noundef i32 @_ZNK6AbsSeq3numEv(ptr noundef nonnull align 8 dereferenceable(56) %10)
  %12 = sext i32 %11 to i64
  %13 = load i64, ptr @G1AdaptiveIHOPNumInitialSamples, align 8
  %14 = icmp uge i64 %12, %13
  br label %15

15:                                               ; preds = %9, %1
  %16 = phi i1 [ false, %1 ], [ %14, %9 ]
  ret i1 %16
}

; Function Attrs: mustprogress nounwind uwtable
define hidden noundef i64 @_ZN21G1AdaptiveIHOPControl29get_conc_mark_start_thresholdEv(ptr noundef nonnull align 8 dereferenceable(216) %0) unnamed_addr #1 align 2 {
  %2 = alloca i64, align 8
  %3 = alloca ptr, align 8
  %4 = alloca double, align 8
  %5 = alloca double, align 8
  %6 = alloca i64, align 8
  %7 = alloca i64, align 8
  %8 = alloca i64, align 8
  %9 = alloca i64, align 8
  store ptr %0, ptr %3, align 8
  %10 = load ptr, ptr %3, align 8
  %11 = call noundef zeroext i1 @_ZNK21G1AdaptiveIHOPControl31have_enough_data_for_predictionEv(ptr noundef nonnull align 8 dereferenceable(216) %10)
  br i1 %11, label %12, label %37

12:                                               ; preds = %1
  %13 = getelementptr inbounds %class.G1AdaptiveIHOPControl, ptr %10, i32 0, i32 4
  %14 = call noundef double @_ZNK21G1AdaptiveIHOPControl7predictEPK12TruncatedSeq(ptr noundef nonnull align 8 dereferenceable(216) %10, ptr noundef %13)
  store double %14, ptr %4, align 8
  %15 = getelementptr inbounds %class.G1AdaptiveIHOPControl, ptr %10, i32 0, i32 5
  %16 = call noundef double @_ZNK21G1AdaptiveIHOPControl7predictEPK12TruncatedSeq(ptr noundef nonnull align 8 dereferenceable(216) %10, ptr noundef %15)
  store double %16, ptr %5, align 8
  %17 = load double, ptr %4, align 8
  %18 = load double, ptr %5, align 8
  %19 = fmul double %17, %18
  %20 = fptoui double %19 to i64
  store i64 %20, ptr %6, align 8
  %21 = load i64, ptr %6, align 8
  %22 = getelementptr inbounds %class.G1AdaptiveIHOPControl, ptr %10, i32 0, i32 6
  %23 = load i64, ptr %22, align 8
  %24 = add i64 %21, %23
  store i64 %24, ptr %7, align 8
  %25 = call noundef i64 @_ZNK21G1AdaptiveIHOPControl23actual_target_thresholdEv(ptr noundef nonnull align 8 dereferenceable(216) %10)
  store i64 %25, ptr %8, align 8
  %26 = load i64, ptr %7, align 8
  %27 = load i64, ptr %8, align 8
  %28 = icmp ult i64 %26, %27
  br i1 %28, label %29, label %33

29:                                               ; preds = %12
  %30 = load i64, ptr %8, align 8
  %31 = load i64, ptr %7, align 8
  %32 = sub i64 %30, %31
  br label %34

33:                                               ; preds = %12
  br label %34

34:                                               ; preds = %33, %29
  %35 = phi i64 [ %32, %29 ], [ 0, %33 ]
  store i64 %35, ptr %9, align 8
  %36 = load i64, ptr %9, align 8
  store i64 %36, ptr %2, align 8
  br label %46

37:                                               ; preds = %1
  %38 = getelementptr inbounds %class.G1IHOPControl, ptr %10, i32 0, i32 1
  %39 = load double, ptr %38, align 8
  %40 = getelementptr inbounds %class.G1IHOPControl, ptr %10, i32 0, i32 2
  %41 = load i64, ptr %40, align 8
  %42 = uitofp i64 %41 to double
  %43 = fmul double %39, %42
  %44 = fdiv double %43, 1.000000e+02
  %45 = fptoui double %44 to i64
  store i64 %45, ptr %2, align 8
  br label %46

46:                                               ; preds = %37, %34
  %47 = load i64, ptr %2, align 8
  ret i64 %47
}