; Function Attrs: mustprogress nounwind uwtable
define hidden noundef i64 @_ZN21G1AdaptiveIHOPControl29get_conc_mark_start_thresholdEv(ptr noundef nonnull align 8 dereferenceable(216) %0) unnamed_addr #1 align 2 {
  %2 = getelementptr inbounds i8, ptr %0, i64 72
  %3 = load i32, ptr %2, align 8
  %4 = sext i32 %3 to i64
  %5 = load i64, ptr @G1AdaptiveIHOPNumInitialSamples, align 8
  %.not.i = icmp ule i64 %5, %4
  %6 = getelementptr inbounds i8, ptr %0, i64 144
  %7 = load i32, ptr %6, align 8
  %8 = sext i32 %7 to i64
  %9 = icmp ule i64 %5, %8
  %10 = select i1 %.not.i, i1 %9, i1 false
  br i1 %10, label %11, label %88

11:                                               ; preds = %1
  %12 = getelementptr inbounds i8, ptr %0, i64 64
  %13 = getelementptr inbounds i8, ptr %0, i64 56
  %14 = load ptr, ptr %13, align 8
  %15 = tail call noundef double @_ZNK6AbsSeq4davgEv(ptr noundef nonnull align 8 dereferenceable(56) %12) #14
  %16 = load double, ptr %14, align 8
  %17 = tail call noundef double @_ZNK6AbsSeq3dsdEv(ptr noundef nonnull align 8 dereferenceable(56) %12) #14
  %18 = load i32, ptr %2, align 8
  %19 = icmp slt i32 %18, 5
  br i1 %19, label %20, label %_ZNK21G1AdaptiveIHOPControl7predictEPK12TruncatedSeq.exit

20:                                               ; preds = %11
  %21 = tail call noundef double @_ZNK6AbsSeq4davgEv(ptr noundef nonnull align 8 dereferenceable(56) %12) #14
  %22 = sub nsw i32 5, %18
  %23 = uitofp nneg i32 %22 to double
  %24 = fmul double %21, %23
  %25 = fmul double %24, 5.000000e-01
  %26 = fcmp ogt double %25, %17
  %27 = select i1 %26, double %25, double %17
  br label %_ZNK21G1AdaptiveIHOPControl7predictEPK12TruncatedSeq.exit

_ZNK21G1AdaptiveIHOPControl7predictEPK12TruncatedSeq.exit: ; preds = %11, %20
  %.0.i.i.i.i = phi double [ %27, %20 ], [ %17, %11 ]
  %28 = tail call noundef double @llvm.fmuladd.f64(double %16, double %.0.i.i.i.i, double %15)
  %29 = fcmp ogt double %28, 0.000000e+00
  %30 = select i1 %29, double %28, double 0.000000e+00
  %31 = getelementptr inbounds i8, ptr %0, i64 136
  %32 = load ptr, ptr %13, align 8
  %33 = tail call noundef double @_ZNK6AbsSeq4davgEv(ptr noundef nonnull align 8 dereferenceable(56) %31) #14
  %34 = load double, ptr %32, align 8
  %35 = tail call noundef double @_ZNK6AbsSeq3dsdEv(ptr noundef nonnull align 8 dereferenceable(56) %31) #14
  %36 = load i32, ptr %6, align 8
  %37 = icmp slt i32 %36, 5
  br i1 %37, label %38, label %_ZNK21G1AdaptiveIHOPControl7predictEPK12TruncatedSeq.exit10

38:                                               ; preds = %_ZNK21G1AdaptiveIHOPControl7predictEPK12TruncatedSeq.exit
  %39 = tail call noundef double @_ZNK6AbsSeq4davgEv(ptr noundef nonnull align 8 dereferenceable(56) %31) #14
  %40 = sub nsw i32 5, %36
  %41 = uitofp nneg i32 %40 to double
  %42 = fmul double %39, %41
  %43 = fmul double %42, 5.000000e-01
  %44 = fcmp ogt double %43, %35
  %45 = select i1 %44, double %43, double %35
  br label %_ZNK21G1AdaptiveIHOPControl7predictEPK12TruncatedSeq.exit10

_ZNK21G1AdaptiveIHOPControl7predictEPK12TruncatedSeq.exit10: ; preds = %_ZNK21G1AdaptiveIHOPControl7predictEPK12TruncatedSeq.exit, %38
  %.0.i.i.i.i9 = phi double [ %45, %38 ], [ %35, %_ZNK21G1AdaptiveIHOPControl7predictEPK12TruncatedSeq.exit ]
  %46 = getelementptr inbounds i8, ptr %0, i64 16
  %47 = load i64, ptr %46, align 8
  %.not.i11 = icmp eq i64 %47, 0
  br i1 %.not.i11, label %48, label %_ZNK21G1AdaptiveIHOPControl23actual_target_thresholdEv.exit

48:                                               ; preds = %_ZNK21G1AdaptiveIHOPControl7predictEPK12TruncatedSeq.exit10
  %49 = load ptr, ptr @g_assert_poison, align 8
  store i8 88, ptr %49, align 1
  tail call void (ptr, i32, ptr, ptr, ...) @_Z15report_vm_errorPKciS0_S0_z(ptr noundef nonnull @.str.5, i32 noundef 101, ptr noundef nonnull @.str.6, ptr noundef nonnull @.str.7) #15
  unreachable

_ZNK21G1AdaptiveIHOPControl23actual_target_thresholdEv.exit: ; preds = %_ZNK21G1AdaptiveIHOPControl7predictEPK12TruncatedSeq.exit10
  %50 = getelementptr inbounds i8, ptr %0, i64 208
  %51 = load i64, ptr %50, align 8
  %52 = tail call noundef double @llvm.fmuladd.f64(double %34, double %.0.i.i.i.i9, double %33)
  %53 = fcmp ogt double %52, 0.000000e+00
  %54 = select i1 %53, double %52, double 0.000000e+00
  %55 = fmul double %30, %54
  %56 = fptoui double %55 to i64
  %57 = add i64 %51, %56
  %58 = getelementptr inbounds i8, ptr %0, i64 40
  %59 = load i64, ptr %58, align 8
  %60 = getelementptr inbounds i8, ptr %0, i64 48
  %61 = load i64, ptr %60, align 8
  %62 = add i64 %61, %59
  %63 = uitofp i64 %62 to double
  %64 = fcmp olt double %63, 1.000000e+02
  %65 = select i1 %64, double %63, double 1.000000e+02
  %66 = load ptr, ptr @_ZN8Universe14_collectedHeapE, align 8
  %67 = load ptr, ptr %66, align 8
  %68 = getelementptr inbounds i8, ptr %67, i64 120
  %69 = load ptr, ptr %68, align 8
  %70 = tail call noundef i64 %69(ptr noundef nonnull align 8 dereferenceable(1488) %66) #14
  %71 = load i64, ptr %46, align 8
  %72 = load i64, ptr %60, align 8
  %73 = uitofp i64 %72 to double
  %74 = insertelement <2 x i64> poison, i64 %70, i64 0
  %75 = insertelement <2 x i64> %74, i64 %71, i64 1
  %76 = uitofp <2 x i64> %75 to <2 x double>
  %77 = insertelement <2 x double> poison, double %65, i64 0
  %78 = insertelement <2 x double> %77, double %73, i64 1
  %79 = fsub <2 x double> <double 1.000000e+02, double 1.000000e+02>, %78
  %80 = fmul <2 x double> %79, %76
  %81 = fdiv <2 x double> %80, <double 1.000000e+02, double 1.000000e+02>
  %82 = extractelement <2 x double> %81, i64 0
  %83 = extractelement <2 x double> %81, i64 1
  %84 = fcmp olt double %82, %83
  %85 = select i1 %84, double %82, double %83
  %86 = fptoui double %85 to i64
  %87 = tail call i64 @llvm.usub.sat.i64(i64 %86, i64 %57)
  br label %97

88:                                               ; preds = %1
  %89 = getelementptr inbounds i8, ptr %0, i64 8
  %90 = load double, ptr %89, align 8
  %91 = getelementptr inbounds i8, ptr %0, i64 16
  %92 = load i64, ptr %91, align 8
  %93 = uitofp i64 %92 to double
  %94 = fmul double %90, %93
  %95 = fdiv double %94, 1.000000e+02
  %96 = fptoui double %95 to i64
  br label %97

97:                                               ; preds = %88, %_ZNK21G1AdaptiveIHOPControl23actual_target_thresholdEv.exit
  %.0 = phi i64 [ %87, %_ZNK21G1AdaptiveIHOPControl23actual_target_thresholdEv.exit ], [ %96, %88 ]
  ret i64 %.0
}